; Function Attrs: nounwind uwtable
define dso_local void @add_name_decoration(i32 noundef %0, ptr noundef readonly captures(none) %1, ptr noundef %2) local_unnamed_addr #0 {
  %4 = tail call i64 @strlen(ptr noundef nonnull dereferenceable(1) %1) #16
  %5 = icmp ugt i64 %4, -17
  br i1 %5, label %6, label %st_add.exit

6:                                                ; preds = %3
  tail call void (ptr, ...) @die(ptr noundef nonnull @.str.40, i64 noundef 16, i64 noundef %4) #17
  unreachable

st_add.exit:                                      ; preds = %3
  %7 = icmp eq i64 %4, -17
  br i1 %7, label %8, label %st_add.exit9

8:                                                ; preds = %st_add.exit
  tail call void (ptr, ...) @die(ptr noundef nonnull @.str.40, i64 noundef -1, i64 noundef 1) #17
  unreachable

st_add.exit9:                                     ; preds = %st_add.exit
  %9 = add nuw i64 %4, 17
  %10 = tail call ptr @xcalloc(i64 noundef 1, i64 noundef %9) #15
  %11 = getelementptr inbounds nuw i8, ptr %10, i64 12
  tail call void @llvm.memcpy.p0.p0.i64(ptr nonnull align 4 %11, ptr nonnull align 1 %1, i64 %4, i1 false)
  %12 = getelementptr inbounds nuw i8, ptr %10, i64 8
  store i32 %0, ptr %12, align 8, !tbaa !11
  %13 = tail call ptr @add_decoration(ptr noundef nonnull @name_decoration, ptr noundef %2, ptr noundef %10) #15
  store ptr %13, ptr %10, align 8, !tbaa !13
  ret void
}